target datalayout = "e-m:e-p270:32:32-p271:32:32-p272:64:64-i64:64-i128:128-f80:128-n8:16:32:64-S128"
target triple = "x86_64-pc-linux-gnu"

%struct._lv_dropdown_t = type { %struct._lv_obj_t, ptr, ptr, ptr, ptr, i32, i32, i32, i32, i8 }
%struct._lv_obj_t = type { ptr, ptr, ptr, ptr, ptr, %struct.lv_area_t, i32, i16, i16 }
%struct.lv_area_t = type { i32, i32, i32, i32 }
%union.lv_style_value_t = type { ptr }
%struct.lv_draw_label_dsc_t = type { %struct.lv_draw_dsc_base_t, ptr, ptr, i32, i32, %struct.lv_color_t, %struct.lv_color_t, %struct.lv_color_t, i32, i32, i32, i32, i8, i32, i32, i32, i8, ptr }
%struct.lv_draw_dsc_base_t = type { ptr, i32, i32, i32, ptr, i64, ptr }
%struct.lv_color_t = type { i8, i8, i8 }
%struct._lv_layer_t = type { ptr, %struct.lv_area_t, i32, %struct.lv_area_t, %struct.lv_area_t, ptr, ptr, ptr, i8, ptr }

; Function Attrs: nounwind uwtable
define internal ptr @get_label(ptr noundef %0) #0 {
  %2 = alloca ptr, align 8
  %3 = alloca ptr, align 8
  %4 = alloca ptr, align 8
  %5 = alloca i32, align 4
  store ptr %0, ptr %3, align 8, !tbaa !3
  call void @llvm.lifetime.start.p0(i64 8, ptr %4) #5
  %6 = load ptr, ptr %3, align 8, !tbaa !3
  store ptr %6, ptr %4, align 8, !tbaa !3
  %7 = load ptr, ptr %4, align 8, !tbaa !3
  %8 = getelementptr inbounds nuw %struct._lv_dropdown_t, ptr %7, i32 0, i32 1
  %9 = load ptr, ptr %8, align 8, !tbaa !7
  %10 = icmp eq ptr %9, null
  br i1 %10, label %11, label %12

11:                                               ; preds = %1
  store ptr null, ptr %2, align 8
  store i32 1, ptr %5, align 4
  br label %17

12:                                               ; preds = %1
  %13 = load ptr, ptr %4, align 8, !tbaa !3
  %14 = getelementptr inbounds nuw %struct._lv_dropdown_t, ptr %13, i32 0, i32 1
  %15 = load ptr, ptr %14, align 8, !tbaa !7
  %16 = call ptr @lv_obj_get_child(ptr noundef %15, i32 noundef 0)
  store ptr %16, ptr %2, align 8
  store i32 1, ptr %5, align 4
  br label %17

17:                                               ; preds = %12, %11
  call void @llvm.lifetime.end.p0(i64 8, ptr %4) #5
  %18 = load ptr, ptr %2, align 8
  ret ptr %18
}

; Function Attrs: inlinehint nounwind uwtable
define internal i32 @lv_obj_get_style_text_line_space(ptr noundef %0, i32 noundef %1) #3 {
  %3 = alloca ptr, align 8
  %4 = alloca i32, align 4
  %5 = alloca %union.lv_style_value_t, align 8
  store ptr %0, ptr %3, align 8, !tbaa !3
  store i32 %1, ptr %4, align 4, !tbaa !22
  call void @llvm.lifetime.start.p0(i64 8, ptr %5) #5
  %6 = load ptr, ptr %3, align 8, !tbaa !3
  %7 = load i32, ptr %4, align 4, !tbaa !22
  %8 = call ptr @lv_obj_get_style_prop(ptr noundef %6, i32 noundef %7, i8 noundef zeroext 92)
  %9 = getelementptr inbounds nuw %union.lv_style_value_t, ptr %5, i32 0, i32 0
  store ptr %8, ptr %9, align 8
  %10 = load i32, ptr %5, align 8, !tbaa !29
  call void @llvm.lifetime.end.p0(i64 8, ptr %5) #5
  ret i32 %10
}

; Function Attrs: nounwind uwtable
define internal void @draw_box_label(ptr noundef %0, ptr noundef %1, i32 noundef %2, i16 noundef zeroext %3) #0 {
  %5 = alloca ptr, align 8
  %6 = alloca ptr, align 8
  %7 = alloca i32, align 4
  %8 = alloca i16, align 2
  %9 = alloca ptr, align 8
  %10 = alloca ptr, align 8
  %11 = alloca i16, align 2
  %12 = alloca %struct.lv_draw_label_dsc_t, align 8
  %13 = alloca ptr, align 8
  %14 = alloca i32, align 4
  %15 = alloca i32, align 4
  %16 = alloca %struct.lv_area_t, align 4
  %17 = alloca %struct.lv_area_t, align 4
  %18 = alloca i8, align 1
  %19 = alloca %struct.lv_area_t, align 4
  store ptr %0, ptr %5, align 8, !tbaa !3
  store ptr %1, ptr %6, align 8, !tbaa !3
  store i32 %2, ptr %7, align 4, !tbaa !22
  store i16 %3, ptr %8, align 2, !tbaa !61
  %20 = load i32, ptr %7, align 4, !tbaa !22
  %21 = icmp eq i32 %20, 65535
  br i1 %21, label %22, label %23

22:                                               ; preds = %4
  br label %130

23:                                               ; preds = %4
  call void @llvm.lifetime.start.p0(i64 8, ptr %9) #5
  %24 = load ptr, ptr %5, align 8, !tbaa !3
  store ptr %24, ptr %9, align 8, !tbaa !3
  call void @llvm.lifetime.start.p0(i64 8, ptr %10) #5
  %25 = load ptr, ptr %9, align 8, !tbaa !3
  %26 = getelementptr inbounds nuw %struct._lv_dropdown_t, ptr %25, i32 0, i32 1
  %27 = load ptr, ptr %26, align 8, !tbaa !7
  store ptr %27, ptr %10, align 8, !tbaa !3
  call void @llvm.lifetime.start.p0(i64 2, ptr %11) #5
  %28 = load ptr, ptr %10, align 8, !tbaa !3
  %29 = getelementptr inbounds nuw %struct._lv_obj_t, ptr %28, i32 0, i32 7
  %30 = load i16, ptr %29, align 4, !tbaa !62
  store i16 %30, ptr %11, align 2, !tbaa !61
  %31 = load i16, ptr %8, align 2, !tbaa !61
  %32 = zext i16 %31 to i32
  %33 = load ptr, ptr %10, align 8, !tbaa !3
  %34 = getelementptr inbounds nuw %struct._lv_obj_t, ptr %33, i32 0, i32 7
  %35 = load i16, ptr %34, align 4, !tbaa !62
  %36 = zext i16 %35 to i32
  %37 = icmp ne i32 %32, %36
  br i1 %37, label %38, label %47

38:                                               ; preds = %23
  %39 = load i16, ptr %8, align 2, !tbaa !61
  %40 = load ptr, ptr %10, align 8, !tbaa !3
  %41 = getelementptr inbounds nuw %struct._lv_obj_t, ptr %40, i32 0, i32 7
  store i16 %39, ptr %41, align 4, !tbaa !62
  %42 = load ptr, ptr %10, align 8, !tbaa !3
  %43 = getelementptr inbounds nuw %struct._lv_obj_t, ptr %42, i32 0, i32 8
  %44 = load i16, ptr %43, align 2
  %45 = and i16 %44, -9
  %46 = or i16 %45, 8
  store i16 %46, ptr %43, align 2
  br label %47

47:                                               ; preds = %38, %23
  call void @llvm.lifetime.start.p0(i64 128, ptr %12) #5
  call void @lv_draw_label_dsc_init(ptr noundef %12)
  %48 = load ptr, ptr %10, align 8, !tbaa !3
  call void @lv_obj_init_draw_label_dsc(ptr noundef %48, i32 noundef 262144, ptr noundef %12)
  %49 = load ptr, ptr %10, align 8, !tbaa !3
  %50 = call i32 @lv_obj_get_style_text_line_space(ptr noundef %49, i32 noundef 262144)
  %51 = getelementptr inbounds nuw %struct.lv_draw_label_dsc_t, ptr %12, i32 0, i32 8
  store i32 %50, ptr %51, align 4, !tbaa !47
  call void @llvm.lifetime.start.p0(i64 8, ptr %13) #5
  %52 = load ptr, ptr %5, align 8, !tbaa !3
  %53 = call ptr @get_label(ptr noundef %52)
  store ptr %53, ptr %13, align 8, !tbaa !3
  %54 = load ptr, ptr %13, align 8, !tbaa !3
  %55 = icmp eq ptr %54, null
  br i1 %55, label %56, label %57

56:                                               ; preds = %47
  store i32 1, ptr %14, align 4
  br label %128

57:                                               ; preds = %47
  call void @llvm.lifetime.start.p0(i64 4, ptr %15) #5
  %58 = getelementptr inbounds nuw %struct.lv_draw_label_dsc_t, ptr %12, i32 0, i32 2
  %59 = load ptr, ptr %58, align 8, !tbaa !42
  %60 = call i32 @lv_font_get_line_height(ptr noundef %59)
  store i32 %60, ptr %15, align 4, !tbaa !22
  call void @llvm.lifetime.start.p0(i64 16, ptr %16) #5
  %61 = load ptr, ptr %13, align 8, !tbaa !3
  %62 = getelementptr inbounds nuw %struct._lv_obj_t, ptr %61, i32 0, i32 5
  %63 = getelementptr inbounds nuw %struct.lv_area_t, ptr %62, i32 0, i32 1
  %64 = load i32, ptr %63, align 4, !tbaa !41
  %65 = getelementptr inbounds nuw %struct.lv_area_t, ptr %16, i32 0, i32 1
  store i32 %64, ptr %65, align 4, !tbaa !50
  %66 = load i32, ptr %7, align 4, !tbaa !22
  %67 = load i32, ptr %15, align 4, !tbaa !22
  %68 = getelementptr inbounds nuw %struct.lv_draw_label_dsc_t, ptr %12, i32 0, i32 8
  %69 = load i32, ptr %68, align 4, !tbaa !47
  %70 = add nsw i32 %67, %69
  %71 = mul i32 %66, %70
  %72 = getelementptr inbounds nuw %struct.lv_area_t, ptr %16, i32 0, i32 1
  %73 = load i32, ptr %72, align 4, !tbaa !50
  %74 = add i32 %73, %71
  store i32 %74, ptr %72, align 4, !tbaa !50
  %75 = getelementptr inbounds nuw %struct.lv_draw_label_dsc_t, ptr %12, i32 0, i32 8
  %76 = load i32, ptr %75, align 4, !tbaa !47
  %77 = sdiv i32 %76, 2
  %78 = getelementptr inbounds nuw %struct.lv_area_t, ptr %16, i32 0, i32 1
  %79 = load i32, ptr %78, align 4, !tbaa !50
  %80 = sub nsw i32 %79, %77
  store i32 %80, ptr %78, align 4, !tbaa !50
  %81 = getelementptr inbounds nuw %struct.lv_area_t, ptr %16, i32 0, i32 1
  %82 = load i32, ptr %81, align 4, !tbaa !50
  %83 = load i32, ptr %15, align 4, !tbaa !22
  %84 = add nsw i32 %82, %83
  %85 = getelementptr inbounds nuw %struct.lv_draw_label_dsc_t, ptr %12, i32 0, i32 8
  %86 = load i32, ptr %85, align 4, !tbaa !47
  %87 = add nsw i32 %84, %86
  %88 = sub nsw i32 %87, 1
  %89 = getelementptr inbounds nuw %struct.lv_area_t, ptr %16, i32 0, i32 3
  store i32 %88, ptr %89, align 4, !tbaa !51
  %90 = load ptr, ptr %10, align 8, !tbaa !3
  %91 = getelementptr inbounds nuw %struct._lv_obj_t, ptr %90, i32 0, i32 5
  %92 = getelementptr inbounds nuw %struct.lv_area_t, ptr %91, i32 0, i32 0
  %93 = load i32, ptr %92, align 8, !tbaa !52
  %94 = getelementptr inbounds nuw %struct.lv_area_t, ptr %16, i32 0, i32 0
  store i32 %93, ptr %94, align 4, !tbaa !53
  %95 = load ptr, ptr %10, align 8, !tbaa !3
  %96 = getelementptr inbounds nuw %struct._lv_obj_t, ptr %95, i32 0, i32 5
  %97 = getelementptr inbounds nuw %struct.lv_area_t, ptr %96, i32 0, i32 2
  %98 = load i32, ptr %97, align 8, !tbaa !63
  %99 = getelementptr inbounds nuw %struct.lv_area_t, ptr %16, i32 0, i32 2
  store i32 %98, ptr %99, align 4, !tbaa !54
  call void @llvm.lifetime.start.p0(i64 16, ptr %17) #5
  call void @llvm.lifetime.start.p0(i64 1, ptr %18) #5
  %100 = load ptr, ptr %6, align 8, !tbaa !3
  %101 = getelementptr inbounds nuw %struct._lv_layer_t, ptr %100, i32 0, i32 3
  %102 = call zeroext i1 @lv_area_intersect(ptr noundef %17, ptr noundef %101, ptr noundef %16)
  %103 = zext i1 %102 to i8
  store i8 %103, ptr %18, align 1, !tbaa !23
  %104 = load i8, ptr %18, align 1, !tbaa !23, !range !25, !noundef !26
  %105 = trunc i8 %104 to i1
  br i1 %105, label %106, label %119

106:                                              ; preds = %57
  call void @llvm.lifetime.start.p0(i64 16, ptr %19) #5
  %107 = load ptr, ptr %6, align 8, !tbaa !3
  %108 = getelementptr inbounds nuw %struct._lv_layer_t, ptr %107, i32 0, i32 3
  call void @llvm.memcpy.p0.p0.i64(ptr align 4 %19, ptr align 4 %108, i64 16, i1 false), !tbaa.struct !60
  %109 = load ptr, ptr %6, align 8, !tbaa !3
  %110 = getelementptr inbounds nuw %struct._lv_layer_t, ptr %109, i32 0, i32 3
  call void @llvm.memcpy.p0.p0.i64(ptr align 4 %110, ptr align 4 %17, i64 16, i1 false), !tbaa.struct !60
  %111 = load ptr, ptr %13, align 8, !tbaa !3
  %112 = call ptr @lv_label_get_text(ptr noundef %111)
  %113 = getelementptr inbounds nuw %struct.lv_draw_label_dsc_t, ptr %12, i32 0, i32 1
  store ptr %112, ptr %113, align 8, !tbaa !55
  %114 = load ptr, ptr %6, align 8, !tbaa !3
  %115 = load ptr, ptr %13, align 8, !tbaa !3
  %116 = getelementptr inbounds nuw %struct._lv_obj_t, ptr %115, i32 0, i32 5
  call void @lv_draw_label(ptr noundef %114, ptr noundef %12, ptr noundef %116)
  %117 = load ptr, ptr %6, align 8, !tbaa !3
  %118 = getelementptr inbounds nuw %struct._lv_layer_t, ptr %117, i32 0, i32 3
  call void @llvm.memcpy.p0.p0.i64(ptr align 4 %118, ptr align 4 %19, i64 16, i1 false), !tbaa.struct !60
  call void @llvm.lifetime.end.p0(i64 16, ptr %19) #5
  br label %119

119:                                              ; preds = %106, %57
  %120 = load i16, ptr %11, align 2, !tbaa !61
  %121 = load ptr, ptr %10, align 8, !tbaa !3
  %122 = getelementptr inbounds nuw %struct._lv_obj_t, ptr %121, i32 0, i32 7
  store i16 %120, ptr %122, align 4, !tbaa !62
  %123 = load ptr, ptr %10, align 8, !tbaa !3
  %124 = getelementptr inbounds nuw %struct._lv_obj_t, ptr %123, i32 0, i32 8
  %125 = load i16, ptr %124, align 2
  %126 = and i16 %125, -9
  %127 = or i16 %126, 0
  store i16 %127, ptr %124, align 2
  call void @llvm.lifetime.end.p0(i64 1, ptr %18) #5
  call void @llvm.lifetime.end.p0(i64 16, ptr %17) #5
  call void @llvm.lifetime.end.p0(i64 16, ptr %16) #5
  call void @llvm.lifetime.end.p0(i64 4, ptr %15) #5
  store i32 0, ptr %14, align 4
  br label %128

128:                                              ; preds = %119, %56
  call void @llvm.lifetime.end.p0(i64 8, ptr %13) #5
  call void @llvm.lifetime.end.p0(i64 128, ptr %12) #5
  call void @llvm.lifetime.end.p0(i64 2, ptr %11) #5
  call void @llvm.lifetime.end.p0(i64 8, ptr %10) #5
  call void @llvm.lifetime.end.p0(i64 8, ptr %9) #5
  %129 = load i32, ptr %14, align 4
  switch i32 %129, label %131 [
    i32 0, label %130
    i32 1, label %130
  ]

130:                                              ; preds = %22, %128, %128
  ret void

131:                                              ; preds = %128
  unreachable
}