; Function Attrs: nounwind uwtable
define internal fastcc void @draw_box_label(ptr nocapture noundef readonly %0, ptr noundef %1, i32 noundef %2, i16 noundef zeroext range(i16 1, 34) %3) unnamed_addr #0 {
  %5 = alloca %struct.lv_draw_label_dsc_t, align 8
  %6 = alloca %struct.lv_area_t, align 4
  %7 = alloca %struct.lv_area_t, align 4
  %8 = alloca %struct.lv_area_t, align 4
  %9 = icmp eq i32 %2, 65535
  br i1 %9, label %56, label %10

10:                                               ; preds = %4
  %11 = getelementptr inbounds nuw i8, ptr %0, i64 64
  %12 = load ptr, ptr %11, align 8, !tbaa !3
  %13 = getelementptr inbounds nuw i8, ptr %12, i64 60
  %14 = load i16, ptr %13, align 4, !tbaa !56
  %.not = icmp eq i16 %3, %14
  br i1 %.not, label %19, label %15

15:                                               ; preds = %10
  store i16 %3, ptr %13, align 4, !tbaa !56
  %16 = getelementptr inbounds nuw i8, ptr %12, i64 62
  %17 = load i16, ptr %16, align 2
  %18 = or i16 %17, 8
  store i16 %18, ptr %16, align 2
  br label %19

19:                                               ; preds = %15, %10
  call void @llvm.lifetime.start.p0(i64 128, ptr nonnull %5) #7
  call void @lv_draw_label_dsc_init(ptr noundef nonnull %5) #7
  call void @lv_obj_init_draw_label_dsc(ptr noundef nonnull %12, i32 noundef 262144, ptr noundef nonnull %5) #7
  %20 = call ptr @lv_obj_get_style_prop(ptr noundef nonnull %12, i32 noundef 262144, i8 noundef zeroext 92) #7
  %21 = ptrtoint ptr %20 to i64
  %.sroa.0.0.extract.trunc.i = trunc i64 %21 to i32
  %22 = getelementptr inbounds nuw i8, ptr %5, i64 84
  store i32 %.sroa.0.0.extract.trunc.i, ptr %22, align 4, !tbaa !43
  %.val = load ptr, ptr %11, align 8, !tbaa !3
  %23 = icmp eq ptr %.val, null
  br i1 %23, label %get_label.exit.thread, label %get_label.exit

get_label.exit:                                   ; preds = %19
  %24 = call ptr @lv_obj_get_child(ptr noundef nonnull %.val, i32 noundef 0) #7
  %25 = icmp eq ptr %24, null
  br i1 %25, label %get_label.exit.thread, label %26

26:                                               ; preds = %get_label.exit
  %27 = getelementptr inbounds nuw i8, ptr %5, i64 56
  %28 = load ptr, ptr %27, align 8, !tbaa !37
  %29 = call i32 @lv_font_get_line_height(ptr noundef %28) #7
  call void @llvm.lifetime.start.p0(i64 16, ptr nonnull %6) #7
  %30 = getelementptr inbounds nuw i8, ptr %24, i64 44
  %31 = load i32, ptr %30, align 4, !tbaa !26
  %32 = getelementptr inbounds nuw i8, ptr %6, i64 4
  %33 = load i32, ptr %22, align 4, !tbaa !43
  %34 = add i32 %33, %29
  %35 = mul i32 %34, %2
  %.neg = sdiv i32 %33, -2
  %36 = add i32 %.neg, %31
  %37 = add i32 %36, %35
  store i32 %37, ptr %32, align 4, !tbaa !46
  %38 = add i32 %34, -1
  %39 = add i32 %38, %37
  %40 = getelementptr inbounds nuw i8, ptr %6, i64 12
  store i32 %39, ptr %40, align 4, !tbaa !47
  %41 = getelementptr inbounds nuw i8, ptr %12, i64 40
  %42 = load i32, ptr %41, align 8, !tbaa !48
  store i32 %42, ptr %6, align 4, !tbaa !49
  %43 = getelementptr inbounds nuw i8, ptr %12, i64 48
  %44 = load i32, ptr %43, align 8, !tbaa !58
  %45 = getelementptr inbounds nuw i8, ptr %6, i64 8
  store i32 %44, ptr %45, align 4, !tbaa !50
  call void @llvm.lifetime.start.p0(i64 16, ptr nonnull %7) #7
  %46 = getelementptr inbounds nuw i8, ptr %1, i64 28
  %47 = call zeroext i1 @lv_area_intersect(ptr noundef nonnull %7, ptr noundef nonnull %46, ptr noundef nonnull %6) #7
  br i1 %47, label %48, label %52

48:                                               ; preds = %26
  %49 = getelementptr inbounds nuw i8, ptr %24, i64 40
  call void @llvm.lifetime.start.p0(i64 16, ptr nonnull %8)
  call void @llvm.memcpy.p0.p0.i64(ptr noundef nonnull align 4 dereferenceable(16) %8, ptr noundef nonnull align 4 dereferenceable(16) %46, i64 16, i1 false), !tbaa.struct !28
  call void @llvm.memcpy.p0.p0.i64(ptr noundef nonnull align 4 dereferenceable(16) %46, ptr noundef nonnull align 4 dereferenceable(16) %7, i64 16, i1 false), !tbaa.struct !28
  %50 = call ptr @lv_label_get_text(ptr noundef nonnull %24) #7
  %51 = getelementptr inbounds nuw i8, ptr %5, i64 48
  store ptr %50, ptr %51, align 8, !tbaa !51
  call void @lv_draw_label(ptr noundef %1, ptr noundef nonnull %5, ptr noundef nonnull %49) #7
  call void @llvm.memcpy.p0.p0.i64(ptr noundef nonnull align 4 dereferenceable(16) %46, ptr noundef nonnull align 4 dereferenceable(16) %8, i64 16, i1 false), !tbaa.struct !28
  call void @llvm.lifetime.end.p0(i64 16, ptr nonnull %8)
  br label %52

52:                                               ; preds = %48, %26
  store i16 %14, ptr %13, align 4, !tbaa !56
  %53 = getelementptr inbounds nuw i8, ptr %12, i64 62
  %54 = load i16, ptr %53, align 2
  %55 = and i16 %54, -9
  store i16 %55, ptr %53, align 2
  call void @llvm.lifetime.end.p0(i64 16, ptr nonnull %7) #7
  call void @llvm.lifetime.end.p0(i64 16, ptr nonnull %6) #7
  br label %get_label.exit.thread

get_label.exit.thread:                            ; preds = %19, %get_label.exit, %52
  call void @llvm.lifetime.end.p0(i64 128, ptr nonnull %5) #7
  br label %56

56:                                               ; preds = %4, %get_label.exit.thread
  ret void
}